target datalayout = "e-m:e-p270:32:32-p271:32:32-p272:64:64-i64:64-i128:128-f80:128-n8:16:32:64-S128"
target triple = "x86_64-pc-linux-gnu"

@_ZN14Deoptimization16_unloaded_actionE = hidden global i32 2, align 4
@_ZN14Deoptimization17_trap_action_nameE = hidden global [5 x ptr] [ptr @.str.51, ptr @.str.82, ptr @.str.83, ptr @.str.84, ptr @.str.85], align 16
@.str.86 = private unnamed_addr constant [5 x i8] c"many\00", align 1
@_ZZN14Deoptimization16trap_reason_nameEiE3buf = internal global [20 x i8] zeroinitializer, align 16
@.str.87 = private unnamed_addr constant [9 x i8] c"reason%d\00", align 1
@_ZZN14Deoptimization16trap_action_nameEiE3buf = internal global [20 x i8] zeroinitializer, align 16
@.str.88 = private unnamed_addr constant [9 x i8] c"action%d\00", align 1
@.str.89 = private unnamed_addr constant [38 x i8] c"reason='%s' action='%s' debug_id='%d'\00", align 1
@.str.90 = private unnamed_addr constant [49 x i8] c"reason='%s' action='%s' index='%d' debug_id='%d'\00", align 1

; Function Attrs: mustprogress nounwind uwtable
define linkonce_odr hidden noundef i32 @_ZN14Deoptimization21trap_request_debug_idEi(i32 noundef %0) #1 comdat align 2 {
  %2 = alloca i32, align 4
  %3 = alloca i32, align 4
  store i32 %0, ptr %3, align 4
  %4 = load i32, ptr %3, align 4
  %5 = icmp slt i32 %4, 0
  br i1 %5, label %6, label %13

6:                                                ; preds = %1
  %7 = load i32, ptr %3, align 4
  %8 = xor i32 %7, -1
  %9 = ashr i32 %8, 8
  %10 = sext i32 %9 to i64
  %11 = and i64 %10, 8388607
  %12 = trunc i64 %11 to i32
  store i32 %12, ptr %2, align 4
  br label %14

13:                                               ; preds = %1
  store i32 0, ptr %2, align 4
  br label %14

14:                                               ; preds = %13, %6
  %15 = load i32, ptr %2, align 4
  ret i32 %15
}

; Function Attrs: mustprogress nounwind uwtable
define hidden noundef ptr @_ZN14Deoptimization16trap_action_nameEi(i32 noundef %0) #1 align 2 {
  %2 = alloca ptr, align 8
  %3 = alloca i32, align 4
  store i32 %0, ptr %3, align 4
  %4 = load i32, ptr %3, align 4
  %5 = icmp ult i32 %4, 5
  br i1 %5, label %6, label %11

6:                                                ; preds = %1
  %7 = load i32, ptr %3, align 4
  %8 = sext i32 %7 to i64
  %9 = getelementptr inbounds [5 x ptr], ptr @_ZN14Deoptimization17_trap_action_nameE, i64 0, i64 %8
  %10 = load ptr, ptr %9, align 8
  store ptr %10, ptr %2, align 8
  br label %14

11:                                               ; preds = %1
  %12 = load i32, ptr %3, align 4
  %13 = call noundef i32 (ptr, i64, ptr, ...) @_ZN2os16snprintf_checkedEPcmPKcz(ptr noundef @_ZZN14Deoptimization16trap_action_nameEiE3buf, i64 noundef 20, ptr noundef @.str.88, i32 noundef %12)
  store ptr @_ZZN14Deoptimization16trap_action_nameEiE3buf, ptr %2, align 8
  br label %14

14:                                               ; preds = %11, %6
  %15 = load ptr, ptr %2, align 8
  ret ptr %15
}

; Function Attrs: mustprogress nounwind uwtable
define linkonce_odr hidden noundef i32 @_ZN14Deoptimization19trap_request_actionEi(i32 noundef %0) #1 comdat align 2 {
  %2 = alloca i32, align 4
  %3 = alloca i32, align 4
  store i32 %0, ptr %3, align 4
  %4 = load i32, ptr %3, align 4
  %5 = icmp slt i32 %4, 0
  br i1 %5, label %6, label %13

6:                                                ; preds = %1
  %7 = load i32, ptr %3, align 4
  %8 = xor i32 %7, -1
  %9 = ashr i32 %8, 0
  %10 = sext i32 %9 to i64
  %11 = and i64 %10, 7
  %12 = trunc i64 %11 to i32
  store i32 %12, ptr %2, align 4
  br label %15

13:                                               ; preds = %1
  %14 = load i32, ptr @_ZN14Deoptimization16_unloaded_actionE, align 4
  store i32 %14, ptr %2, align 4
  br label %15

15:                                               ; preds = %13, %6
  %16 = load i32, ptr %2, align 4
  ret i32 %16
}

; Function Attrs: mustprogress nounwind uwtable
define hidden noundef ptr @_ZN14Deoptimization16trap_reason_nameEi(i32 noundef %0) #1 align 2 {
  %2 = alloca ptr, align 8
  %3 = alloca i32, align 4
  store i32 %0, ptr %3, align 4
  %4 = load i32, ptr %3, align 4
  %5 = icmp eq i32 %4, -1
  br i1 %5, label %6, label %7

6:                                                ; preds = %1
  store ptr @.str.86, ptr %2, align 8
  br label %18

7:                                                ; preds = %1
  %8 = load i32, ptr %3, align 4
  %9 = icmp ult i32 %8, 31
  br i1 %9, label %10, label %15

10:                                               ; preds = %7
  %11 = load i32, ptr %3, align 4
  %12 = sext i32 %11 to i64
  %13 = getelementptr inbounds [31 x ptr], ptr @_ZN14Deoptimization17_trap_reason_nameE, i64 0, i64 %12
  %14 = load ptr, ptr %13, align 8
  store ptr %14, ptr %2, align 8
  br label %18

15:                                               ; preds = %7
  %16 = load i32, ptr %3, align 4
  %17 = call noundef i32 (ptr, i64, ptr, ...) @_ZN2os16snprintf_checkedEPcmPKcz(ptr noundef @_ZZN14Deoptimization16trap_reason_nameEiE3buf, i64 noundef 20, ptr noundef @.str.87, i32 noundef %16)
  store ptr @_ZZN14Deoptimization16trap_reason_nameEiE3buf, ptr %2, align 8
  br label %18

18:                                               ; preds = %15, %10, %6
  %19 = load ptr, ptr %2, align 8
  ret ptr %19
}

; Function Attrs: mustprogress nounwind uwtable
define linkonce_odr hidden noundef i32 @_ZN14Deoptimization19trap_request_reasonEi(i32 noundef %0) #1 comdat align 2 {
  %2 = alloca i32, align 4
  %3 = alloca i32, align 4
  store i32 %0, ptr %3, align 4
  %4 = load i32, ptr %3, align 4
  %5 = icmp slt i32 %4, 0
  br i1 %5, label %6, label %13

6:                                                ; preds = %1
  %7 = load i32, ptr %3, align 4
  %8 = xor i32 %7, -1
  %9 = ashr i32 %8, 3
  %10 = sext i32 %9 to i64
  %11 = and i64 %10, 31
  %12 = trunc i64 %11 to i32
  store i32 %12, ptr %2, align 4
  br label %14

13:                                               ; preds = %1
  store i32 9, ptr %2, align 4
  br label %14

14:                                               ; preds = %13, %6
  %15 = load i32, ptr %2, align 4
  ret i32 %15
}

; Function Attrs: mustprogress nounwind uwtable
define linkonce_odr hidden noundef i32 @_ZN14Deoptimization18trap_request_indexEi(i32 noundef %0) #1 comdat align 2 {
  %2 = alloca i32, align 4
  %3 = alloca i32, align 4
  store i32 %0, ptr %3, align 4
  %4 = load i32, ptr %3, align 4
  %5 = icmp slt i32 %4, 0
  br i1 %5, label %6, label %7

6:                                                ; preds = %1
  store i32 -1, ptr %2, align 4
  br label %9

7:                                                ; preds = %1
  %8 = load i32, ptr %3, align 4
  store i32 %8, ptr %2, align 4
  br label %9

9:                                                ; preds = %7, %6
  %10 = load i32, ptr %2, align 4
  ret i32 %10
}

; Function Attrs: mustprogress nounwind uwtable
define hidden noundef ptr @_ZN14Deoptimization19format_trap_requestEPcmi(ptr noundef %0, i64 noundef %1, i32 noundef %2) #1 align 2 {
  %4 = alloca ptr, align 8
  %5 = alloca i64, align 8
  %6 = alloca i32, align 4
  %7 = alloca i32, align 4
  %8 = alloca ptr, align 8
  %9 = alloca ptr, align 8
  %10 = alloca i32, align 4
  %11 = alloca i64, align 8
  store ptr %0, ptr %4, align 8
  store i64 %1, ptr %5, align 8
  store i32 %2, ptr %6, align 4
  %12 = load i32, ptr %6, align 4
  %13 = call noundef i32 @_ZN14Deoptimization18trap_request_indexEi(i32 noundef %12)
  store i32 %13, ptr %7, align 4
  %14 = load i32, ptr %6, align 4
  %15 = call noundef i32 @_ZN14Deoptimization19trap_request_reasonEi(i32 noundef %14)
  %16 = call noundef ptr @_ZN14Deoptimization16trap_reason_nameEi(i32 noundef %15)
  store ptr %16, ptr %8, align 8
  %17 = load i32, ptr %6, align 4
  %18 = call noundef i32 @_ZN14Deoptimization19trap_request_actionEi(i32 noundef %17)
  %19 = call noundef ptr @_ZN14Deoptimization16trap_action_nameEi(i32 noundef %18)
  store ptr %19, ptr %9, align 8
  %20 = load i32, ptr %6, align 4
  %21 = call noundef i32 @_ZN14Deoptimization21trap_request_debug_idEi(i32 noundef %20)
  store i32 %21, ptr %10, align 4
  %22 = load i32, ptr %7, align 4
  %23 = icmp slt i32 %22, 0
  br i1 %23, label %24, label %32

24:                                               ; preds = %3
  %25 = load ptr, ptr %4, align 8
  %26 = load i64, ptr %5, align 8
  %27 = load ptr, ptr %8, align 8
  %28 = load ptr, ptr %9, align 8
  %29 = load i32, ptr %10, align 4
  %30 = call i32 (ptr, i64, ptr, ...) @jio_snprintf(ptr noundef %25, i64 noundef %26, ptr noundef @.str.89, ptr noundef %27, ptr noundef %28, i32 noundef %29)
  %31 = sext i32 %30 to i64
  store i64 %31, ptr %11, align 8
  br label %41

32:                                               ; preds = %3
  %33 = load ptr, ptr %4, align 8
  %34 = load i64, ptr %5, align 8
  %35 = load ptr, ptr %8, align 8
  %36 = load ptr, ptr %9, align 8
  %37 = load i32, ptr %7, align 4
  %38 = load i32, ptr %10, align 4
  %39 = call i32 (ptr, i64, ptr, ...) @jio_snprintf(ptr noundef %33, i64 noundef %34, ptr noundef @.str.90, ptr noundef %35, ptr noundef %36, i32 noundef %37, i32 noundef %38)
  %40 = sext i32 %39 to i64
  store i64 %40, ptr %11, align 8
  br label %41

41:                                               ; preds = %32, %24
  %42 = load ptr, ptr %4, align 8
  ret ptr %42
}