; Function Attrs: mustprogress nounwind uwtable
define hidden noundef ptr @_ZN14Deoptimization19format_trap_requestEPcmi(ptr noundef returned %0, i64 noundef %1, i32 noundef %2) local_unnamed_addr #0 align 2 {
  %..i = tail call noundef i32 @llvm.smax.i32(i32 %2, i32 -1)
  %4 = icmp slt i32 %2, 0
  %5 = xor i32 %2, -1
  %6 = lshr i32 %5, 3
  %7 = and i32 %6, 31
  %.0.i = select i1 %4, i32 %7, i32 9
  %.not = icmp eq i32 %.0.i, 31
  br i1 %.not, label %12, label %8

8:                                                ; preds = %3
  %9 = zext nneg i32 %.0.i to i64
  %10 = getelementptr inbounds [31 x ptr], ptr @_ZN14Deoptimization17_trap_reason_nameE, i64 0, i64 %9
  %11 = load ptr, ptr %10, align 8
  br label %_ZN14Deoptimization16trap_reason_nameEi.exit

12:                                               ; preds = %3
  %13 = tail call noundef i32 (ptr, i64, ptr, ...) @_ZN2os16snprintf_checkedEPcmPKcz(ptr noundef nonnull @_ZZN14Deoptimization16trap_reason_nameEiE3buf, i64 noundef 20, ptr noundef nonnull @.str.87, i32 noundef 31) #22
  br label %_ZN14Deoptimization16trap_reason_nameEi.exit

_ZN14Deoptimization16trap_reason_nameEi.exit:     ; preds = %8, %12
  %.0.i16 = phi ptr [ %11, %8 ], [ @_ZZN14Deoptimization16trap_reason_nameEiE3buf, %12 ]
  %14 = and i32 %2, 7
  %15 = xor i32 %14, 7
  %16 = load i32, ptr @_ZN14Deoptimization16_unloaded_actionE, align 4
  %.0.i17 = select i1 %4, i32 %15, i32 %16
  %17 = icmp ult i32 %.0.i17, 5
  br i1 %17, label %18, label %22

18:                                               ; preds = %_ZN14Deoptimization16trap_reason_nameEi.exit
  %19 = zext nneg i32 %.0.i17 to i64
  %20 = getelementptr inbounds [5 x ptr], ptr @_ZN14Deoptimization17_trap_action_nameE, i64 0, i64 %19
  %21 = load ptr, ptr %20, align 8
  br label %_ZN14Deoptimization16trap_action_nameEi.exit

22:                                               ; preds = %_ZN14Deoptimization16trap_reason_nameEi.exit
  %23 = tail call noundef i32 (ptr, i64, ptr, ...) @_ZN2os16snprintf_checkedEPcmPKcz(ptr noundef nonnull @_ZZN14Deoptimization16trap_action_nameEiE3buf, i64 noundef 20, ptr noundef nonnull @.str.88, i32 noundef %.0.i17) #22
  br label %_ZN14Deoptimization16trap_action_nameEi.exit

_ZN14Deoptimization16trap_action_nameEi.exit:     ; preds = %18, %22
  %.0.i18 = phi ptr [ %21, %18 ], [ @_ZZN14Deoptimization16trap_action_nameEiE3buf, %22 ]
  br i1 %4, label %24, label %27

24:                                               ; preds = %_ZN14Deoptimization16trap_action_nameEi.exit
  %25 = lshr i32 %5, 8
  %26 = tail call i32 (ptr, i64, ptr, ...) @jio_snprintf(ptr noundef %0, i64 noundef %1, ptr noundef nonnull @.str.89, ptr noundef %.0.i16, ptr noundef %.0.i18, i32 noundef %25) #22
  br label %29

27:                                               ; preds = %_ZN14Deoptimization16trap_action_nameEi.exit
  %28 = tail call i32 (ptr, i64, ptr, ...) @jio_snprintf(ptr noundef %0, i64 noundef %1, ptr noundef nonnull @.str.90, ptr noundef %.0.i16, ptr noundef %.0.i18, i32 noundef %..i, i32 noundef 0) #22
  br label %29

29:                                               ; preds = %27, %24
  ret ptr %0
}